; Function Attrs: mustprogress uwtable
define internal noundef range(i32 0, 2) i32 @"_ZNSt17_Function_handlerIFivEZ4mainE3$_2E9_M_invokeERKSt9_Any_data"(ptr noundef nonnull readonly align 8 captures(none) dereferenceable(16) %0) #8 align 2 {
  %2 = tail call noundef nonnull align 8 dereferenceable(8) ptr @_ZSt16__ostream_insertIcSt11char_traitsIcEERSt13basic_ostreamIT_T0_ES6_PKS3_l(ptr noundef nonnull align 8 dereferenceable(8) @_ZSt4cout, ptr noundef nonnull @.str.89, i64 noundef 11)
  %3 = load ptr, ptr %0, align 8, !tbaa !844
  %4 = load i32, ptr %3, align 4, !tbaa !17
  %5 = tail call noundef nonnull align 8 dereferenceable(8) ptr @_ZNSolsEi(ptr noundef nonnull align 8 dereferenceable(8) @_ZSt4cout, i32 noundef %4)
  %6 = tail call noundef nonnull align 8 dereferenceable(8) ptr @_ZSt16__ostream_insertIcSt11char_traitsIcEERSt13basic_ostreamIT_T0_ES6_PKS3_l(ptr noundef nonnull align 8 dereferenceable(8) %5, ptr noundef nonnull @.str.90, i64 noundef 4)
  %7 = load ptr, ptr %0, align 8, !tbaa !844
  %8 = load i32, ptr %7, align 4, !tbaa !17
  %.not.i.i.i = icmp eq i32 %8, 5
  br i1 %.not.i.i.i, label %11, label %9

9:                                                ; preds = %1
  %10 = tail call noundef nonnull align 8 dereferenceable(8) ptr @_ZSt16__ostream_insertIcSt11char_traitsIcEERSt13basic_ostreamIT_T0_ES6_PKS3_l(ptr noundef nonnull align 8 dereferenceable(8) @_ZSt4cout, ptr noundef nonnull @.str.91, i64 noundef 24)
  br label %"_ZSt10__invoke_rIiRZ4mainE3$_2JEENSt9enable_ifIX16is_invocable_r_vIT_T0_DpT1_EES3_E4typeEOS4_DpOS5_.exit"

11:                                               ; preds = %1
  %12 = tail call noundef nonnull align 8 dereferenceable(8) ptr @_ZSt16__ostream_insertIcSt11char_traitsIcEERSt13basic_ostreamIT_T0_ES6_PKS3_l(ptr noundef nonnull align 8 dereferenceable(8) @_ZSt4cout, ptr noundef nonnull @.str.92, i64 noundef 28)
  br label %"_ZSt10__invoke_rIiRZ4mainE3$_2JEENSt9enable_ifIX16is_invocable_r_vIT_T0_DpT1_EES3_E4typeEOS4_DpOS5_.exit"

"_ZSt10__invoke_rIiRZ4mainE3$_2JEENSt9enable_ifIX16is_invocable_r_vIT_T0_DpT1_EES3_E4typeEOS4_DpOS5_.exit": ; preds = %9, %11
  %.0.i.i.i = phi i32 [ 0, %9 ], [ 1, %11 ]
  ret i32 %.0.i.i.i
}